target datalayout = "e-m:e-p270:32:32-p271:32:32-p272:64:64-i64:64-i128:128-f80:128-n8:16:32:64-S128"
target triple = "x86_64-pc-linux-gnu"

%struct.QVirtioPCIDevice = type { %struct.QOSGraphObject, %struct.QVirtioDevice, ptr, %struct.QPCIBar, ptr, i16, i64, i32, i32, i32, i32, i32, i32, i32 }
%struct.QOSGraphObject = type { ptr, ptr, ptr, ptr, ptr }
%struct.QVirtioDevice = type { ptr, i16, i64, i8, i8 }
%struct.QPCIBar = type { i64, i8 }

@.str = private unnamed_addr constant [47 x i8] c"../qemu/tests/qtest/libqos/virtio-pci-modern.c\00", align 1
@.str.4 = private unnamed_addr constant [3 x i8] c"!=\00", align 1
@__func__.set_config_vector = private unnamed_addr constant [18 x i8] c"set_config_vector\00", align 1
@.str.7 = private unnamed_addr constant [31 x i8] c"vector != VIRTIO_MSI_NO_VECTOR\00", align 1

; Function Attrs: nounwind sspstrong uwtable
define internal void @set_config_vector(ptr noundef %0, i16 noundef zeroext %1) #0 {
  %3 = alloca ptr, align 8
  %4 = alloca i16, align 2
  %5 = alloca i16, align 2
  %6 = alloca i64, align 8
  %7 = alloca i64, align 8
  store ptr %0, ptr %3, align 8
  store i16 %1, ptr %4, align 2
  call void @llvm.lifetime.start.p0(i64 2, ptr %5) #5
  store i16 0, ptr %5, align 2, !annotation !4
  %8 = load ptr, ptr %3, align 8
  %9 = getelementptr inbounds nuw %struct.QVirtioPCIDevice, ptr %8, i32 0, i32 2
  %10 = load ptr, ptr %9, align 8
  %11 = load ptr, ptr %3, align 8
  %12 = getelementptr inbounds nuw %struct.QVirtioPCIDevice, ptr %11, i32 0, i32 3
  %13 = load ptr, ptr %3, align 8
  %14 = getelementptr inbounds nuw %struct.QVirtioPCIDevice, ptr %13, i32 0, i32 9
  %15 = load i32, ptr %14, align 8
  %16 = zext i32 %15 to i64
  %17 = add i64 %16, 16
  %18 = load i16, ptr %4, align 2
  %19 = getelementptr inbounds nuw { i64, i8 }, ptr %12, i32 0, i32 0
  %20 = load i64, ptr %19, align 8
  %21 = getelementptr inbounds nuw { i64, i8 }, ptr %12, i32 0, i32 1
  %22 = load i8, ptr %21, align 8
  call void @qpci_io_writew(ptr noundef %10, i64 %20, i8 %22, i64 noundef %17, i16 noundef zeroext %18)
  %23 = load ptr, ptr %3, align 8
  %24 = getelementptr inbounds nuw %struct.QVirtioPCIDevice, ptr %23, i32 0, i32 2
  %25 = load ptr, ptr %24, align 8
  %26 = load ptr, ptr %3, align 8
  %27 = getelementptr inbounds nuw %struct.QVirtioPCIDevice, ptr %26, i32 0, i32 3
  %28 = load ptr, ptr %3, align 8
  %29 = getelementptr inbounds nuw %struct.QVirtioPCIDevice, ptr %28, i32 0, i32 9
  %30 = load i32, ptr %29, align 8
  %31 = zext i32 %30 to i64
  %32 = add i64 %31, 16
  %33 = getelementptr inbounds nuw { i64, i8 }, ptr %27, i32 0, i32 0
  %34 = load i64, ptr %33, align 8
  %35 = getelementptr inbounds nuw { i64, i8 }, ptr %27, i32 0, i32 1
  %36 = load i8, ptr %35, align 8
  %37 = call zeroext i16 @qpci_io_readw(ptr noundef %25, i64 %34, i8 %36, i64 noundef %32)
  store i16 %37, ptr %5, align 2
  br label %38

38:                                               ; preds = %2
  call void @llvm.lifetime.start.p0(i64 8, ptr %6) #5
  %39 = load i16, ptr %5, align 2
  %40 = zext i16 %39 to i64
  store i64 %40, ptr %6, align 8
  call void @llvm.lifetime.start.p0(i64 8, ptr %7) #5
  store i64 65535, ptr %7, align 8
  %41 = load i64, ptr %6, align 8
  %42 = load i64, ptr %7, align 8
  %43 = icmp ne i64 %41, %42
  br i1 %43, label %44, label %45

44:                                               ; preds = %38
  br label %50

45:                                               ; preds = %38
  %46 = load i64, ptr %6, align 8
  %47 = uitofp i64 %46 to x86_fp80
  %48 = load i64, ptr %7, align 8
  %49 = uitofp i64 %48 to x86_fp80
  call void @g_assertion_message_cmpnum(ptr noundef null, ptr noundef @.str, i32 noundef 287, ptr noundef @__func__.set_config_vector, ptr noundef @.str.7, x86_fp80 noundef %47, ptr noundef @.str.4, x86_fp80 noundef %49, i8 noundef signext 120)
  br label %50

50:                                               ; preds = %45, %44
  call void @llvm.lifetime.end.p0(i64 8, ptr %7) #5
  call void @llvm.lifetime.end.p0(i64 8, ptr %6) #5
  br label %51

51:                                               ; preds = %50
  br label %52

52:                                               ; preds = %51
  call void @llvm.lifetime.end.p0(i64 2, ptr %5) #5
  ret void
}