; Function Attrs: nounwind sspstrong uwtable
define internal void @set_config_vector(ptr noundef readonly captures(none) %0, i16 noundef zeroext %1) #0 {
  %3 = getelementptr inbounds nuw i8, ptr %0, i64 72
  %4 = load ptr, ptr %3, align 8
  %5 = getelementptr inbounds nuw i8, ptr %0, i64 80
  %6 = getelementptr inbounds nuw i8, ptr %0, i64 128
  %7 = load i32, ptr %6, align 8
  %8 = zext i32 %7 to i64
  %9 = add nuw nsw i64 %8, 16
  %10 = load i64, ptr %5, align 8
  %11 = getelementptr inbounds nuw i8, ptr %0, i64 88
  %12 = load i8, ptr %11, align 8
  tail call void @qpci_io_writew(ptr noundef %4, i64 %10, i8 %12, i64 noundef %9, i16 noundef zeroext %1) #3
  %13 = load ptr, ptr %3, align 8
  %14 = load i32, ptr %6, align 8
  %15 = zext i32 %14 to i64
  %16 = add nuw nsw i64 %15, 16
  %17 = load i64, ptr %5, align 8
  %18 = load i8, ptr %11, align 8
  %19 = tail call zeroext i16 @qpci_io_readw(ptr noundef %13, i64 %17, i8 %18, i64 noundef %16) #3
  %.not = icmp eq i16 %19, -1
  br i1 %.not, label %20, label %21

20:                                               ; preds = %2
  tail call void @g_assertion_message_cmpnum(ptr noundef null, ptr noundef nonnull @.str, i32 noundef 287, ptr noundef nonnull @__func__.set_config_vector, ptr noundef nonnull @.str.7, x86_fp80 noundef 0xK400EFFFF000000000000, ptr noundef nonnull @.str.4, x86_fp80 noundef 0xK400EFFFF000000000000, i8 noundef signext 120) #3
  br label %21

21:                                               ; preds = %2, %20
  ret void
}